; Function Attrs: nofree norecurse nosync nounwind memory(write, argmem: readwrite, inaccessiblemem: none) uwtable
define internal noundef i32 @H5P__fcrt_btree_rank_enc(ptr noundef readonly captures(none) %0, ptr noundef captures(none) %1, ptr noundef captures(none) %2) #2 {
  %4 = load ptr, ptr %1, align 8
  %.not = icmp eq ptr %4, null
  br i1 %.not, label %.loopexit, label %5

5:                                                ; preds = %3
  %6 = getelementptr inbounds nuw i8, ptr %4, i64 1
  store ptr %6, ptr %1, align 8
  store i8 4, ptr %4, align 1
  %.pre = load ptr, ptr %1, align 8
  br label %7

7:                                                ; preds = %5, %7
  %8 = phi ptr [ %.pre, %5 ], [ %28, %7 ]
  %9 = phi i1 [ true, %5 ], [ false, %7 ]
  %.01921 = phi ptr [ %0, %5 ], [ %29, %7 ]
  %10 = load i32, ptr %.01921, align 4
  %11 = trunc i32 %10 to i8
  store i8 %11, ptr %8, align 1
  %12 = load ptr, ptr %1, align 8
  %13 = getelementptr inbounds nuw i8, ptr %12, i64 1
  store ptr %13, ptr %1, align 8
  %14 = load i32, ptr %.01921, align 4
  %15 = lshr i32 %14, 8
  %16 = trunc i32 %15 to i8
  store i8 %16, ptr %13, align 1
  %17 = load ptr, ptr %1, align 8
  %18 = getelementptr inbounds nuw i8, ptr %17, i64 1
  store ptr %18, ptr %1, align 8
  %19 = load i32, ptr %.01921, align 4
  %20 = lshr i32 %19, 16
  %21 = trunc i32 %20 to i8
  store i8 %21, ptr %18, align 1
  %22 = load ptr, ptr %1, align 8
  %23 = getelementptr inbounds nuw i8, ptr %22, i64 1
  store ptr %23, ptr %1, align 8
  %24 = load i32, ptr %.01921, align 4
  %25 = lshr i32 %24, 24
  %26 = trunc nuw i32 %25 to i8
  store i8 %26, ptr %23, align 1
  %27 = load ptr, ptr %1, align 8
  %28 = getelementptr inbounds nuw i8, ptr %27, i64 1
  store ptr %28, ptr %1, align 8
  %29 = getelementptr inbounds nuw i8, ptr %.01921, i64 4
  br i1 %9, label %7, label %.loopexit

.loopexit:                                        ; preds = %7, %3
  %30 = load i64, ptr %2, align 8
  %31 = add i64 %30, 9
  store i64 %31, ptr %2, align 8
  ret i32 0
}